target datalayout = "e-m:e-p270:32:32-p271:32:32-p272:64:64-i64:64-i128:128-f80:128-n8:16:32:64-S128"
target triple = "x86_64-pc-linux-gnu"

%struct.RelFileLocator = type { i32, i32, i32 }
%struct.BulkWriteState = type { ptr, i32, i8, i32, [32 x %struct.PendingWrite], i32, i64, ptr }
%struct.PendingWrite = type { ptr, i32, i8 }
%struct.SMgrRelationData = type { %struct.RelFileLocatorBackend, i32, [4 x i32], i32, [4 x i32], [4 x ptr], i32, %struct.dlist_node }
%struct.RelFileLocatorBackend = type { %struct.RelFileLocator, i32 }
%struct.dlist_node = type { ptr, ptr }

@zero_buffer = internal constant { [8192 x i8] } zeroinitializer, align 4096

; Function Attrs: inlinehint nounwind uwtable
define internal void @smgrwrite(ptr noundef %0, i32 noundef %1, i32 noundef %2, ptr noundef %3, i1 noundef zeroext %4) #1 {
  %6 = alloca ptr, align 8
  %7 = alloca i32, align 4
  %8 = alloca i32, align 4
  %9 = alloca ptr, align 8
  %10 = alloca i8, align 1
  store ptr %0, ptr %6, align 8
  store i32 %1, ptr %7, align 4
  store i32 %2, ptr %8, align 4
  store ptr %3, ptr %9, align 8
  %11 = zext i1 %4 to i8
  store i8 %11, ptr %10, align 1
  %12 = load ptr, ptr %6, align 8
  %13 = load i32, ptr %7, align 4
  %14 = load i32, ptr %8, align 4
  %15 = load i8, ptr %10, align 1, !range !4, !noundef !5
  %16 = trunc i8 %15 to i1
  call void @smgrwritev(ptr noundef %12, i32 noundef %13, i32 noundef %14, ptr noundef %9, i32 noundef 1, i1 noundef zeroext %16)
  ret void
}

; Function Attrs: nounwind uwtable
define internal void @smgr_bulk_flush(ptr noundef %0) #0 {
  %2 = alloca ptr, align 8
  %3 = alloca i32, align 4
  %4 = alloca ptr, align 8
  %5 = alloca i32, align 4
  %6 = alloca [32 x i32], align 16
  %7 = alloca [32 x ptr], align 16
  %8 = alloca i8, align 1
  %9 = alloca i32, align 4
  %10 = alloca i32, align 4
  %11 = alloca i32, align 4
  %12 = alloca ptr, align 8
  store ptr %0, ptr %2, align 8
  call void @llvm.lifetime.start.p0(i64 4, ptr %3) #7
  %13 = load ptr, ptr %2, align 8
  %14 = getelementptr inbounds nuw %struct.BulkWriteState, ptr %13, i32 0, i32 3
  %15 = load i32, ptr %14, align 8
  store i32 %15, ptr %3, align 4
  call void @llvm.lifetime.start.p0(i64 8, ptr %4) #7
  %16 = load ptr, ptr %2, align 8
  %17 = getelementptr inbounds nuw %struct.BulkWriteState, ptr %16, i32 0, i32 4
  %18 = getelementptr inbounds [32 x %struct.PendingWrite], ptr %17, i64 0, i64 0
  store ptr %18, ptr %4, align 8
  %19 = load i32, ptr %3, align 4
  %20 = icmp eq i32 %19, 0
  br i1 %20, label %21, label %22

21:                                               ; preds = %1
  store i32 1, ptr %5, align 4
  br label %164

22:                                               ; preds = %1
  %23 = load i32, ptr %3, align 4
  %24 = icmp sgt i32 %23, 1
  br i1 %24, label %25, label %29

25:                                               ; preds = %22
  %26 = load ptr, ptr %4, align 8
  %27 = load i32, ptr %3, align 4
  %28 = sext i32 %27 to i64
  call void @pg_qsort(ptr noundef %26, i64 noundef %28, i64 noundef 16, ptr noundef @buffer_cmp)
  br label %29

29:                                               ; preds = %25, %22
  %30 = load ptr, ptr %2, align 8
  %31 = getelementptr inbounds nuw %struct.BulkWriteState, ptr %30, i32 0, i32 2
  %32 = load i8, ptr %31, align 4, !range !4, !noundef !5
  %33 = trunc i8 %32 to i1
  br i1 %33, label %34, label %86

34:                                               ; preds = %29
  call void @llvm.lifetime.start.p0(i64 128, ptr %6) #7
  call void @llvm.lifetime.start.p0(i64 256, ptr %7) #7
  call void @llvm.lifetime.start.p0(i64 1, ptr %8) #7
  store i8 1, ptr %8, align 1
  call void @llvm.lifetime.start.p0(i64 4, ptr %9) #7
  store i32 0, ptr %9, align 4
  br label %35

35:                                               ; preds = %69, %34
  %36 = load i32, ptr %9, align 4
  %37 = load i32, ptr %3, align 4
  %38 = icmp slt i32 %36, %37
  br i1 %38, label %40, label %39

39:                                               ; preds = %35
  store i32 2, ptr %5, align 4
  call void @llvm.lifetime.end.p0(i64 4, ptr %9) #7
  br label %72

40:                                               ; preds = %35
  %41 = load ptr, ptr %4, align 8
  %42 = load i32, ptr %9, align 4
  %43 = sext i32 %42 to i64
  %44 = getelementptr inbounds %struct.PendingWrite, ptr %41, i64 %43
  %45 = getelementptr inbounds nuw %struct.PendingWrite, ptr %44, i32 0, i32 1
  %46 = load i32, ptr %45, align 8
  %47 = load i32, ptr %9, align 4
  %48 = sext i32 %47 to i64
  %49 = getelementptr inbounds [32 x i32], ptr %6, i64 0, i64 %48
  store i32 %46, ptr %49, align 4
  %50 = load ptr, ptr %4, align 8
  %51 = load i32, ptr %9, align 4
  %52 = sext i32 %51 to i64
  %53 = getelementptr inbounds %struct.PendingWrite, ptr %50, i64 %52
  %54 = getelementptr inbounds nuw %struct.PendingWrite, ptr %53, i32 0, i32 0
  %55 = load ptr, ptr %54, align 8
  %56 = getelementptr inbounds [8192 x i8], ptr %55, i64 0, i64 0
  %57 = load i32, ptr %9, align 4
  %58 = sext i32 %57 to i64
  %59 = getelementptr inbounds [32 x ptr], ptr %7, i64 0, i64 %58
  store ptr %56, ptr %59, align 8
  %60 = load ptr, ptr %4, align 8
  %61 = load i32, ptr %9, align 4
  %62 = sext i32 %61 to i64
  %63 = getelementptr inbounds %struct.PendingWrite, ptr %60, i64 %62
  %64 = getelementptr inbounds nuw %struct.PendingWrite, ptr %63, i32 0, i32 2
  %65 = load i8, ptr %64, align 4, !range !4, !noundef !5
  %66 = trunc i8 %65 to i1
  br i1 %66, label %68, label %67

67:                                               ; preds = %40
  store i8 0, ptr %8, align 1
  br label %68

68:                                               ; preds = %67, %40
  br label %69

69:                                               ; preds = %68
  %70 = load i32, ptr %9, align 4
  %71 = add i32 %70, 1
  store i32 %71, ptr %9, align 4
  br label %35, !llvm.loop !6

72:                                               ; preds = %39
  %73 = load ptr, ptr %2, align 8
  %74 = getelementptr inbounds nuw %struct.BulkWriteState, ptr %73, i32 0, i32 0
  %75 = load ptr, ptr %74, align 8
  %76 = getelementptr inbounds nuw %struct.SMgrRelationData, ptr %75, i32 0, i32 0
  %77 = getelementptr inbounds nuw %struct.RelFileLocatorBackend, ptr %76, i32 0, i32 0
  %78 = load ptr, ptr %2, align 8
  %79 = getelementptr inbounds nuw %struct.BulkWriteState, ptr %78, i32 0, i32 1
  %80 = load i32, ptr %79, align 8
  %81 = load i32, ptr %3, align 4
  %82 = getelementptr inbounds [32 x i32], ptr %6, i64 0, i64 0
  %83 = getelementptr inbounds [32 x ptr], ptr %7, i64 0, i64 0
  %84 = load i8, ptr %8, align 1, !range !4, !noundef !5
  %85 = trunc i8 %84 to i1
  call void @log_newpages(ptr noundef %77, i32 noundef %80, i32 noundef %81, ptr noundef %82, ptr noundef %83, i1 noundef zeroext %85)
  call void @llvm.lifetime.end.p0(i64 1, ptr %8) #7
  call void @llvm.lifetime.end.p0(i64 256, ptr %7) #7
  call void @llvm.lifetime.end.p0(i64 128, ptr %6) #7
  br label %86

86:                                               ; preds = %72, %29
  call void @llvm.lifetime.start.p0(i64 4, ptr %10) #7
  store i32 0, ptr %10, align 4
  br label %87

87:                                               ; preds = %158, %86
  %88 = load i32, ptr %10, align 4
  %89 = load i32, ptr %3, align 4
  %90 = icmp slt i32 %88, %89
  br i1 %90, label %92, label %91

91:                                               ; preds = %87
  store i32 5, ptr %5, align 4
  call void @llvm.lifetime.end.p0(i64 4, ptr %10) #7
  br label %161

92:                                               ; preds = %87
  call void @llvm.lifetime.start.p0(i64 4, ptr %11) #7
  %93 = load ptr, ptr %4, align 8
  %94 = load i32, ptr %10, align 4
  %95 = sext i32 %94 to i64
  %96 = getelementptr inbounds %struct.PendingWrite, ptr %93, i64 %95
  %97 = getelementptr inbounds nuw %struct.PendingWrite, ptr %96, i32 0, i32 1
  %98 = load i32, ptr %97, align 8
  store i32 %98, ptr %11, align 4
  call void @llvm.lifetime.start.p0(i64 8, ptr %12) #7
  %99 = load ptr, ptr %4, align 8
  %100 = load i32, ptr %10, align 4
  %101 = sext i32 %100 to i64
  %102 = getelementptr inbounds %struct.PendingWrite, ptr %99, i64 %101
  %103 = getelementptr inbounds nuw %struct.PendingWrite, ptr %102, i32 0, i32 0
  %104 = load ptr, ptr %103, align 8
  %105 = getelementptr inbounds [8192 x i8], ptr %104, i64 0, i64 0
  store ptr %105, ptr %12, align 8
  %106 = load ptr, ptr %12, align 8
  %107 = load i32, ptr %11, align 4
  call void @PageSetChecksumInplace(ptr noundef %106, i32 noundef %107)
  %108 = load i32, ptr %11, align 4
  %109 = load ptr, ptr %2, align 8
  %110 = getelementptr inbounds nuw %struct.BulkWriteState, ptr %109, i32 0, i32 5
  %111 = load i32, ptr %110, align 8
  %112 = icmp uge i32 %108, %111
  br i1 %112, label %113, label %147

113:                                              ; preds = %92
  br label %114

114:                                              ; preds = %120, %113
  %115 = load i32, ptr %11, align 4
  %116 = load ptr, ptr %2, align 8
  %117 = getelementptr inbounds nuw %struct.BulkWriteState, ptr %116, i32 0, i32 5
  %118 = load i32, ptr %117, align 8
  %119 = icmp ugt i32 %115, %118
  br i1 %119, label %120, label %134

120:                                              ; preds = %114
  %121 = load ptr, ptr %2, align 8
  %122 = getelementptr inbounds nuw %struct.BulkWriteState, ptr %121, i32 0, i32 0
  %123 = load ptr, ptr %122, align 8
  %124 = load ptr, ptr %2, align 8
  %125 = getelementptr inbounds nuw %struct.BulkWriteState, ptr %124, i32 0, i32 1
  %126 = load i32, ptr %125, align 8
  %127 = load ptr, ptr %2, align 8
  %128 = getelementptr inbounds nuw %struct.BulkWriteState, ptr %127, i32 0, i32 5
  %129 = load i32, ptr %128, align 8
  call void @smgrextend(ptr noundef %123, i32 noundef %126, i32 noundef %129, ptr noundef @zero_buffer, i1 noundef zeroext true)
  %130 = load ptr, ptr %2, align 8
  %131 = getelementptr inbounds nuw %struct.BulkWriteState, ptr %130, i32 0, i32 5
  %132 = load i32, ptr %131, align 8
  %133 = add i32 %132, 1
  store i32 %133, ptr %131, align 8
  br label %114, !llvm.loop !8

134:                                              ; preds = %114
  %135 = load ptr, ptr %2, align 8
  %136 = getelementptr inbounds nuw %struct.BulkWriteState, ptr %135, i32 0, i32 0
  %137 = load ptr, ptr %136, align 8
  %138 = load ptr, ptr %2, align 8
  %139 = getelementptr inbounds nuw %struct.BulkWriteState, ptr %138, i32 0, i32 1
  %140 = load i32, ptr %139, align 8
  %141 = load i32, ptr %11, align 4
  %142 = load ptr, ptr %12, align 8
  call void @smgrextend(ptr noundef %137, i32 noundef %140, i32 noundef %141, ptr noundef %142, i1 noundef zeroext true)
  %143 = load ptr, ptr %2, align 8
  %144 = getelementptr inbounds nuw %struct.BulkWriteState, ptr %143, i32 0, i32 5
  %145 = load i32, ptr %144, align 8
  %146 = add i32 %145, 1
  store i32 %146, ptr %144, align 8
  br label %156

147:                                              ; preds = %92
  %148 = load ptr, ptr %2, align 8
  %149 = getelementptr inbounds nuw %struct.BulkWriteState, ptr %148, i32 0, i32 0
  %150 = load ptr, ptr %149, align 8
  %151 = load ptr, ptr %2, align 8
  %152 = getelementptr inbounds nuw %struct.BulkWriteState, ptr %151, i32 0, i32 1
  %153 = load i32, ptr %152, align 8
  %154 = load i32, ptr %11, align 4
  %155 = load ptr, ptr %12, align 8
  call void @smgrwrite(ptr noundef %150, i32 noundef %153, i32 noundef %154, ptr noundef %155, i1 noundef zeroext true)
  br label %156

156:                                              ; preds = %147, %134
  %157 = load ptr, ptr %12, align 8
  call void @pfree(ptr noundef %157)
  call void @llvm.lifetime.end.p0(i64 8, ptr %12) #7
  call void @llvm.lifetime.end.p0(i64 4, ptr %11) #7
  br label %158

158:                                              ; preds = %156
  %159 = load i32, ptr %10, align 4
  %160 = add i32 %159, 1
  store i32 %160, ptr %10, align 4
  br label %87, !llvm.loop !9

161:                                              ; preds = %91
  %162 = load ptr, ptr %2, align 8
  %163 = getelementptr inbounds nuw %struct.BulkWriteState, ptr %162, i32 0, i32 3
  store i32 0, ptr %163, align 8
  store i32 0, ptr %5, align 4
  br label %164

164:                                              ; preds = %161, %21
  call void @llvm.lifetime.end.p0(i64 8, ptr %4) #7
  call void @llvm.lifetime.end.p0(i64 4, ptr %3) #7
  %165 = load i32, ptr %5, align 4
  switch i32 %165, label %167 [
    i32 0, label %166
    i32 1, label %166
  ]

166:                                              ; preds = %164, %164
  ret void

167:                                              ; preds = %164
  unreachable
}