; Function Attrs: nounwind uwtable
define internal fastcc void @smgr_bulk_flush(ptr noundef %0) unnamed_addr #0 {
  %2 = alloca ptr, align 8
  %3 = alloca [32 x i32], align 16
  %4 = alloca [32 x ptr], align 16
  %5 = getelementptr inbounds nuw i8, ptr %0, i64 16
  %6 = load i32, ptr %5, align 8
  %7 = getelementptr inbounds nuw i8, ptr %0, i64 24
  %8 = icmp eq i32 %6, 0
  br i1 %8, label %56, label %9

9:                                                ; preds = %1
  %10 = icmp sgt i32 %6, 1
  br i1 %10, label %11, label %13

11:                                               ; preds = %9
  %12 = zext nneg i32 %6 to i64
  tail call void @pg_qsort(ptr noundef nonnull %7, i64 noundef %12, i64 noundef 16, ptr noundef nonnull @buffer_cmp) #4
  br label %13

13:                                               ; preds = %11, %9
  %14 = getelementptr inbounds nuw i8, ptr %0, i64 12
  %15 = load i8, ptr %14, align 4, !range !5, !noundef !6
  %16 = trunc nuw i8 %15 to i1
  br i1 %16, label %17, label %31

17:                                               ; preds = %13
  call void @llvm.lifetime.start.p0(i64 128, ptr nonnull %3) #4
  call void @llvm.lifetime.start.p0(i64 256, ptr nonnull %4) #4
  %18 = icmp sgt i32 %6, 0
  br i1 %18, label %.lr.ph.preheader, label %._crit_edge

.lr.ph.preheader:                                 ; preds = %17
  %wide.trip.count = zext nneg i32 %6 to i64
  br label %.lr.ph

._crit_edge:                                      ; preds = %.lr.ph, %17
  %.0.lcssa = phi i1 [ true, %17 ], [ %spec.select, %.lr.ph ]
  %19 = load ptr, ptr %0, align 8
  %20 = getelementptr inbounds nuw i8, ptr %0, i64 8
  %21 = load i32, ptr %20, align 8
  call void @log_newpages(ptr noundef %19, i32 noundef %21, i32 noundef %6, ptr noundef nonnull %3, ptr noundef nonnull %4, i1 noundef zeroext %.0.lcssa) #4
  call void @llvm.lifetime.end.p0(i64 256, ptr nonnull %4) #4
  call void @llvm.lifetime.end.p0(i64 128, ptr nonnull %3) #4
  br label %31

.lr.ph:                                           ; preds = %.lr.ph.preheader, %.lr.ph
  %indvars.iv = phi i64 [ 0, %.lr.ph.preheader ], [ %indvars.iv.next, %.lr.ph ]
  %.056 = phi i1 [ true, %.lr.ph.preheader ], [ %spec.select, %.lr.ph ]
  %22 = getelementptr inbounds nuw %struct.PendingWrite, ptr %7, i64 %indvars.iv
  %23 = getelementptr inbounds nuw i8, ptr %22, i64 8
  %24 = load i32, ptr %23, align 8
  %25 = getelementptr inbounds nuw [32 x i32], ptr %3, i64 0, i64 %indvars.iv
  store i32 %24, ptr %25, align 4
  %26 = load ptr, ptr %22, align 8
  %27 = getelementptr inbounds nuw [32 x ptr], ptr %4, i64 0, i64 %indvars.iv
  store ptr %26, ptr %27, align 8
  %28 = getelementptr inbounds nuw i8, ptr %22, i64 12
  %29 = load i8, ptr %28, align 4, !range !5, !noundef !6
  %30 = trunc nuw i8 %29 to i1
  %spec.select = select i1 %30, i1 %.056, i1 false
  %indvars.iv.next = add nuw nsw i64 %indvars.iv, 1
  %exitcond.not = icmp eq i64 %indvars.iv.next, %wide.trip.count
  br i1 %exitcond.not, label %._crit_edge, label %.lr.ph, !llvm.loop !7

31:                                               ; preds = %._crit_edge, %13
  %32 = icmp sgt i32 %6, 0
  br i1 %32, label %.lr.ph61, label %._crit_edge62

.lr.ph61:                                         ; preds = %31
  %33 = getelementptr inbounds nuw i8, ptr %0, i64 536
  %34 = getelementptr inbounds nuw i8, ptr %0, i64 8
  %wide.trip.count66 = zext nneg i32 %6 to i64
  br label %35

._crit_edge62:                                    ; preds = %55, %31
  store i32 0, ptr %5, align 8
  br label %56

35:                                               ; preds = %.lr.ph61, %55
  %indvars.iv63 = phi i64 [ 0, %.lr.ph61 ], [ %indvars.iv.next64, %55 ]
  %36 = getelementptr inbounds nuw %struct.PendingWrite, ptr %7, i64 %indvars.iv63
  %37 = getelementptr inbounds nuw i8, ptr %36, i64 8
  %38 = load i32, ptr %37, align 8
  %39 = load ptr, ptr %36, align 8
  call void @PageSetChecksumInplace(ptr noundef %39, i32 noundef %38) #4
  %40 = load i32, ptr %33, align 8
  %.not = icmp ult i32 %38, %40
  br i1 %.not, label %52, label %.preheader

.preheader:                                       ; preds = %35
  %41 = icmp ugt i32 %38, %40
  br i1 %41, label %.lr.ph57, label %._crit_edge58

.lr.ph57:                                         ; preds = %.preheader, %.lr.ph57
  %42 = phi i32 [ %46, %.lr.ph57 ], [ %40, %.preheader ]
  %43 = load ptr, ptr %0, align 8
  %44 = load i32, ptr %34, align 8
  call void @smgrextend(ptr noundef %43, i32 noundef %44, i32 noundef %42, ptr noundef nonnull @zero_buffer, i1 noundef zeroext true) #4
  %45 = load i32, ptr %33, align 8
  %46 = add i32 %45, 1
  store i32 %46, ptr %33, align 8
  %47 = icmp ugt i32 %38, %46
  br i1 %47, label %.lr.ph57, label %._crit_edge58, !llvm.loop !9

._crit_edge58:                                    ; preds = %.lr.ph57, %.preheader
  %48 = load ptr, ptr %0, align 8
  %49 = load i32, ptr %34, align 8
  call void @smgrextend(ptr noundef %48, i32 noundef %49, i32 noundef %38, ptr noundef %39, i1 noundef zeroext true) #4
  %50 = load i32, ptr %33, align 8
  %51 = add i32 %50, 1
  store i32 %51, ptr %33, align 8
  br label %55

52:                                               ; preds = %35
  %53 = load ptr, ptr %0, align 8
  %54 = load i32, ptr %34, align 8
  call void @llvm.lifetime.start.p0(i64 8, ptr nonnull %2)
  store ptr %39, ptr %2, align 8
  call void @smgrwritev(ptr noundef %53, i32 noundef %54, i32 noundef %38, ptr noundef nonnull %2, i32 noundef 1, i1 noundef zeroext true) #4
  call void @llvm.lifetime.end.p0(i64 8, ptr nonnull %2)
  br label %55

55:                                               ; preds = %52, %._crit_edge58
  call void @pfree(ptr noundef %39) #4
  %indvars.iv.next64 = add nuw nsw i64 %indvars.iv63, 1
  %exitcond67.not = icmp eq i64 %indvars.iv.next64, %wide.trip.count66
  br i1 %exitcond67.not, label %._crit_edge62, label %35, !llvm.loop !10

56:                                               ; preds = %1, %._crit_edge62
  ret void
}